
file_thay.elf:     file format elf32-littlearm

Sections:
Idx Name          Size      VMA       LMA       File off  Algn
  0 .isr_vector   0000010c  08000000  08000000  00010000  2**0
                  CONTENTS, ALLOC, LOAD, READONLY, DATA
  1 .text         00000488  0800010c  0800010c  0001010c  2**2
                  CONTENTS, ALLOC, LOAD, READONLY, CODE
  2 .rodata       00000010  08000594  08000594  00010594  2**2
                  CONTENTS, ALLOC, LOAD, READONLY, DATA
  3 .ARM.extab    00000000  080005a4  080005a4  00020004  2**0
                  CONTENTS
  4 .ARM          00000000  080005a4  080005a4  00020004  2**0
                  CONTENTS
  5 .preinit_array 00000000  080005a4  080005a4  00020004  2**0
                  CONTENTS, ALLOC, LOAD, DATA
  6 .init_array   00000004  080005a4  080005a4  000105a4  2**2
                  CONTENTS, ALLOC, LOAD, DATA
  7 .fini_array   00000004  080005a8  080005a8  000105a8  2**2
                  CONTENTS, ALLOC, LOAD, DATA
  8 .data         00000004  20000000  080005ac  00020000  2**0
                  CONTENTS, ALLOC, LOAD, DATA
  9 .bss          000000a4  20000004  080005b0  00020004  2**2
                  ALLOC
 10 ._user_heap_stack 00000600  200000a8  080005b0  000200a8  2**0
                  ALLOC
 11 .ARM.attributes 00000029  00000000  00000000  00020004  2**0
                  CONTENTS, READONLY
 12 .debug_info   00001753  00000000  00000000  0002002d  2**0
                  CONTENTS, READONLY, DEBUGGING
 13 .debug_abbrev 000005e5  00000000  00000000  00021780  2**0
                  CONTENTS, READONLY, DEBUGGING
 14 .debug_aranges 00000200  00000000  00000000  00021d68  2**3
                  CONTENTS, READONLY, DEBUGGING
 15 .debug_ranges 000001b8  00000000  00000000  00021f68  2**3
                  CONTENTS, READONLY, DEBUGGING
 16 .debug_macro  00001cce  00000000  00000000  00022120  2**0
                  CONTENTS, READONLY, DEBUGGING
 17 .debug_line   00001bc1  00000000  00000000  00023dee  2**0
                  CONTENTS, READONLY, DEBUGGING
 18 .debug_str    0007db1d  00000000  00000000  000259af  2**0
                  CONTENTS, READONLY, DEBUGGING
 19 .comment      0000007b  00000000  00000000  000a34cc  2**0
                  CONTENTS, READONLY
 20 .debug_frame  0000066c  00000000  00000000  000a3548  2**2
                  CONTENTS, READONLY, DEBUGGING

Disassembly of section .text:

0800010c <__do_global_dtors_aux>:
 800010c:	b510      	push	{r4, lr}
 800010e:	4c05      	ldr	r4, [pc, #20]	; (8000124 <__do_global_dtors_aux+0x18>)
 8000110:	7823      	ldrb	r3, [r4, #0]
 8000112:	b933      	cbnz	r3, 8000122 <__do_global_dtors_aux+0x16>
 8000114:	4b04      	ldr	r3, [pc, #16]	; (8000128 <__do_global_dtors_aux+0x1c>)
 8000116:	b113      	cbz	r3, 800011e <__do_global_dtors_aux+0x12>
 8000118:	4804      	ldr	r0, [pc, #16]	; (800012c <__do_global_dtors_aux+0x20>)
 800011a:	f3af 8000 	nop.w
 800011e:	2301      	movs	r3, #1
 8000120:	7023      	strb	r3, [r4, #0]
 8000122:	bd10      	pop	{r4, pc}
 8000124:	20000004 	.word	0x20000004
 8000128:	00000000 	.word	0x00000000
 800012c:	0800057c 	.word	0x0800057c

08000130 <frame_dummy>:
 8000130:	b508      	push	{r3, lr}
 8000132:	4b03      	ldr	r3, [pc, #12]	; (8000140 <frame_dummy+0x10>)
 8000134:	b11b      	cbz	r3, 800013e <frame_dummy+0xe>
 8000136:	4903      	ldr	r1, [pc, #12]	; (8000144 <frame_dummy+0x14>)
 8000138:	4803      	ldr	r0, [pc, #12]	; (8000148 <frame_dummy+0x18>)
 800013a:	f3af 8000 	nop.w
 800013e:	bd08      	pop	{r3, pc}
 8000140:	00000000 	.word	0x00000000
 8000144:	20000008 	.word	0x20000008
 8000148:	0800057c 	.word	0x0800057c

0800014c <main>:
void Custom_Uart_Interrupt_Enable();
uint8_t Custom_Uart_Read_Char();
uint8_t data_recv[128] = {0};
uint8_t test = 0;
int main()
{
 800014c:	b580      	push	{r7, lr}
 800014e:	af00      	add	r7, sp, #0
	Custom_Clock_Init();
 8000150:	f000 f816 	bl	8000180 <Custom_Clock_Init>
	Custom_SysTick_Init();
 8000154:	f000 f856 	bl	8000204 <Custom_SysTick_Init>
	Custom_Uart_Init();
 8000158:	f000 f898 	bl	800028c <Custom_Uart_Init>
	Custom_Uart_DMA_Enable();
 800015c:	f000 f92a 	bl	80003b4 <Custom_Uart_DMA_Enable>
	Custom_Uart_Interrupt_Enable();
 8000160:	f000 f95a 	bl	8000418 <Custom_Uart_Interrupt_Enable>
	Custom_Uart_Write_String((uint8_t*)"hello world\r\n");
 8000164:	4805      	ldr	r0, [pc, #20]	; (800017c <main+0x30>)
 8000166:	f000 f8eb 	bl	8000340 <Custom_Uart_Write_String>
	while(1)
	{
		Custom_Uart_Write_String((uint8_t*)"hello world\r\n");
 800016a:	4804      	ldr	r0, [pc, #16]	; (800017c <main+0x30>)
 800016c:	f000 f8e8 	bl	8000340 <Custom_Uart_Write_String>
		Custom_Delay(1000);
 8000170:	f44f 707a 	mov.w	r0, #1000	; 0x3e8
 8000174:	f000 f860 	bl	8000238 <Custom_Delay>
		Custom_Uart_Write_String((uint8_t*)"hello world\r\n");
 8000178:	e7f7      	b.n	800016a <main+0x1e>
 800017a:	bf00      	nop
 800017c:	08000594 	.word	0x08000594

08000180 <Custom_Clock_Init>:
	}
	return 0;
}

void Custom_Clock_Init()
{
 8000180:	b480      	push	{r7}
 8000182:	b085      	sub	sp, #20
 8000184:	af00      	add	r7, sp, #0
	uint32_t* RCC_CR = (uint32_t*)0x40021000;
 8000186:	4b1b      	ldr	r3, [pc, #108]	; (80001f4 <Custom_Clock_Init+0x74>)
 8000188:	60fb      	str	r3, [r7, #12]
	*RCC_CR = (*RCC_CR & ~(uint32_t)(1))|1;
 800018a:	68fb      	ldr	r3, [r7, #12]
 800018c:	681b      	ldr	r3, [r3, #0]
 800018e:	f043 0201 	orr.w	r2, r3, #1
 8000192:	68fb      	ldr	r3, [r7, #12]
 8000194:	601a      	str	r2, [r3, #0]

	uint32_t* RCC_CFGR = (uint32_t*)(0x40021000 + 0x04);
 8000196:	4b18      	ldr	r3, [pc, #96]	; (80001f8 <Custom_Clock_Init+0x78>)
 8000198:	60bb      	str	r3, [r7, #8]
	*RCC_CFGR = (*RCC_CFGR & ~(uint32_t)3);
 800019a:	68bb      	ldr	r3, [r7, #8]
 800019c:	681b      	ldr	r3, [r3, #0]
 800019e:	f023 0203 	bic.w	r2, r3, #3
 80001a2:	68bb      	ldr	r3, [r7, #8]
 80001a4:	601a      	str	r2, [r3, #0]

	uint32_t* RCC_APB2ENR = (uint32_t*)(0x40021000 + 0x18);
 80001a6:	4b15      	ldr	r3, [pc, #84]	; (80001fc <Custom_Clock_Init+0x7c>)
 80001a8:	607b      	str	r3, [r7, #4]
	uint32_t* RCC_AHBENR = (uint32_t*)(0x40021014);
 80001aa:	4b15      	ldr	r3, [pc, #84]	; (8000200 <Custom_Clock_Init+0x80>)
 80001ac:	603b      	str	r3, [r7, #0]
	*RCC_APB2ENR = (*RCC_APB2ENR & ~(uint32_t)0x08) | 0x08;
 80001ae:	687b      	ldr	r3, [r7, #4]
 80001b0:	681b      	ldr	r3, [r3, #0]
 80001b2:	f043 0208 	orr.w	r2, r3, #8
 80001b6:	687b      	ldr	r3, [r7, #4]
 80001b8:	601a      	str	r2, [r3, #0]
	*RCC_APB2ENR = (*RCC_APB2ENR & ~(uint32_t)0x04) | 0x04;
 80001ba:	687b      	ldr	r3, [r7, #4]
 80001bc:	681b      	ldr	r3, [r3, #0]
 80001be:	f043 0204 	orr.w	r2, r3, #4
 80001c2:	687b      	ldr	r3, [r7, #4]
 80001c4:	601a      	str	r2, [r3, #0]
	*RCC_APB2ENR |= 1<<2;		//enable clock for PORTA
 80001c6:	687b      	ldr	r3, [r7, #4]
 80001c8:	681b      	ldr	r3, [r3, #0]
 80001ca:	f043 0204 	orr.w	r2, r3, #4
 80001ce:	687b      	ldr	r3, [r7, #4]
 80001d0:	601a      	str	r2, [r3, #0]
	*RCC_APB2ENR |= 1<<14;		//enable clock for UART1
 80001d2:	687b      	ldr	r3, [r7, #4]
 80001d4:	681b      	ldr	r3, [r3, #0]
 80001d6:	f443 4280 	orr.w	r2, r3, #16384	; 0x4000
 80001da:	687b      	ldr	r3, [r7, #4]
 80001dc:	601a      	str	r2, [r3, #0]
	*RCC_AHBENR |= 1;			//enable clock for DMA1
 80001de:	683b      	ldr	r3, [r7, #0]
 80001e0:	681b      	ldr	r3, [r3, #0]
 80001e2:	f043 0201 	orr.w	r2, r3, #1
 80001e6:	683b      	ldr	r3, [r7, #0]
 80001e8:	601a      	str	r2, [r3, #0]
}
 80001ea:	bf00      	nop
 80001ec:	3714      	adds	r7, #20
 80001ee:	46bd      	mov	sp, r7
 80001f0:	bc80      	pop	{r7}
 80001f2:	4770      	bx	lr
 80001f4:	40021000 	.word	0x40021000
 80001f8:	40021004 	.word	0x40021004
 80001fc:	40021018 	.word	0x40021018
 8000200:	40021014 	.word	0x40021014

08000204 <Custom_SysTick_Init>:

void Custom_SysTick_Init()
{
 8000204:	b480      	push	{r7}
 8000206:	b083      	sub	sp, #12
 8000208:	af00      	add	r7, sp, #0
	uint32_t* SYST_CSR = (uint32_t*)(0xE000E010);
 800020a:	4b09      	ldr	r3, [pc, #36]	; (8000230 <Custom_SysTick_Init+0x2c>)
 800020c:	607b      	str	r3, [r7, #4]
	uint32_t* SYST_RVR = (uint32_t*)(0xE000E014);
 800020e:	4b09      	ldr	r3, [pc, #36]	; (8000234 <Custom_SysTick_Init+0x30>)
 8000210:	603b      	str	r3, [r7, #0]
	*SYST_CSR = (*SYST_CSR & ~(uint32_t)0x0007) | 7;
 8000212:	687b      	ldr	r3, [r7, #4]
 8000214:	681b      	ldr	r3, [r3, #0]
 8000216:	f043 0207 	orr.w	r2, r3, #7
 800021a:	687b      	ldr	r3, [r7, #4]
 800021c:	601a      	str	r2, [r3, #0]
	*SYST_RVR = 8000;
 800021e:	683b      	ldr	r3, [r7, #0]
 8000220:	f44f 52fa 	mov.w	r2, #8000	; 0x1f40
 8000224:	601a      	str	r2, [r3, #0]
}
 8000226:	bf00      	nop
 8000228:	370c      	adds	r7, #12
 800022a:	46bd      	mov	sp, r7
 800022c:	bc80      	pop	{r7}
 800022e:	4770      	bx	lr
 8000230:	e000e010 	.word	0xe000e010
 8000234:	e000e014 	.word	0xe000e014

08000238 <Custom_Delay>:

void Custom_Delay(uint32_t milisec)
{
 8000238:	b480      	push	{r7}
 800023a:	b085      	sub	sp, #20
 800023c:	af00      	add	r7, sp, #0
 800023e:	6078      	str	r0, [r7, #4]
	uint32_t* SYST_CSR = (uint32_t*)(0xE000E010);
 8000240:	4b11      	ldr	r3, [pc, #68]	; (8000288 <Custom_Delay+0x50>)
 8000242:	60bb      	str	r3, [r7, #8]
	*SYST_CSR = (*SYST_CSR & ~(uint32_t)0x0001) | 1;
 8000244:	68bb      	ldr	r3, [r7, #8]
 8000246:	681b      	ldr	r3, [r3, #0]
 8000248:	f043 0201 	orr.w	r2, r3, #1
 800024c:	68bb      	ldr	r3, [r7, #8]
 800024e:	601a      	str	r2, [r3, #0]
	uint32_t cnt = 0;
 8000250:	2300      	movs	r3, #0
 8000252:	60fb      	str	r3, [r7, #12]
	while(cnt < milisec)
 8000254:	e008      	b.n	8000268 <Custom_Delay+0x30>
	{
		if(((*SYST_CSR & (uint32_t)0x10000) >> 16) == 1)
 8000256:	68bb      	ldr	r3, [r7, #8]
 8000258:	681b      	ldr	r3, [r3, #0]
 800025a:	f403 3380 	and.w	r3, r3, #65536	; 0x10000
 800025e:	2b00      	cmp	r3, #0
 8000260:	d002      	beq.n	8000268 <Custom_Delay+0x30>
			cnt++;
 8000262:	68fb      	ldr	r3, [r7, #12]
 8000264:	3301      	adds	r3, #1
 8000266:	60fb      	str	r3, [r7, #12]
	while(cnt < milisec)
 8000268:	68fa      	ldr	r2, [r7, #12]
 800026a:	687b      	ldr	r3, [r7, #4]
 800026c:	429a      	cmp	r2, r3
 800026e:	d3f2      	bcc.n	8000256 <Custom_Delay+0x1e>
	}
	*SYST_CSR = (*SYST_CSR & ~(uint32_t)0x0001);
 8000270:	68bb      	ldr	r3, [r7, #8]
 8000272:	681b      	ldr	r3, [r3, #0]
 8000274:	f023 0201 	bic.w	r2, r3, #1
 8000278:	68bb      	ldr	r3, [r7, #8]
 800027a:	601a      	str	r2, [r3, #0]
}
 800027c:	bf00      	nop
 800027e:	3714      	adds	r7, #20
 8000280:	46bd      	mov	sp, r7
 8000282:	bc80      	pop	{r7}
 8000284:	4770      	bx	lr
 8000286:	bf00      	nop
 8000288:	e000e010 	.word	0xe000e010

0800028c <Custom_Uart_Init>:

void Custom_Uart_Init()
{
 800028c:	b480      	push	{r7}
 800028e:	b085      	sub	sp, #20
 8000290:	af00      	add	r7, sp, #0
	uint32_t *GPIOA_CRH = (uint32_t*)(0x40010804);
 8000292:	4b19      	ldr	r3, [pc, #100]	; (80002f8 <Custom_Uart_Init+0x6c>)
 8000294:	60fb      	str	r3, [r7, #12]
	uint32_t *USART_BRR = (uint32_t*)(0x40013808);
 8000296:	4b19      	ldr	r3, [pc, #100]	; (80002fc <Custom_Uart_Init+0x70>)
 8000298:	60bb      	str	r3, [r7, #8]
	uint32_t *USART_CR1 = (uint32_t*)(0x4001380C);
 800029a:	4b19      	ldr	r3, [pc, #100]	; (8000300 <Custom_Uart_Init+0x74>)
 800029c:	607b      	str	r3, [r7, #4]

	*GPIOA_CRH &= 0xFFFFF00F;
 800029e:	68fb      	ldr	r3, [r7, #12]
 80002a0:	681b      	ldr	r3, [r3, #0]
 80002a2:	f423 627f 	bic.w	r2, r3, #4080	; 0xff0
 80002a6:	68fb      	ldr	r3, [r7, #12]
 80002a8:	601a      	str	r2, [r3, #0]
	*GPIOA_CRH |= (3 << 6) | (3 << 4);	//set Tx as Alternate function output open-dair
 80002aa:	68fb      	ldr	r3, [r7, #12]
 80002ac:	681b      	ldr	r3, [r3, #0]
 80002ae:	f043 02f0 	orr.w	r2, r3, #240	; 0xf0
 80002b2:	68fb      	ldr	r3, [r7, #12]
 80002b4:	601a      	str	r2, [r3, #0]
	*GPIOA_CRH |= (1 << 10);			//set Rx as Floating input (reset state)
 80002b6:	68fb      	ldr	r3, [r7, #12]
 80002b8:	681b      	ldr	r3, [r3, #0]
 80002ba:	f443 6280 	orr.w	r2, r3, #1024	; 0x400
 80002be:	68fb      	ldr	r3, [r7, #12]
 80002c0:	601a      	str	r2, [r3, #0]
	 * UART_BRR = Fuart  / (16 * BaudRate)
	 * 9600 ==> UART_BRR = 8000000 / (16 * 9600) = 52.08 ~ 52.1
	 */


	*USART_BRR = 52<<4 | 1; //Set BaudRate in 9600 bit/sec
 80002c2:	68bb      	ldr	r3, [r7, #8]
 80002c4:	f240 3241 	movw	r2, #833	; 0x341
 80002c8:	601a      	str	r2, [r3, #0]
	*USART_CR1 |= 1<<3;		//Enable transmitter
 80002ca:	687b      	ldr	r3, [r7, #4]
 80002cc:	681b      	ldr	r3, [r3, #0]
 80002ce:	f043 0208 	orr.w	r2, r3, #8
 80002d2:	687b      	ldr	r3, [r7, #4]
 80002d4:	601a      	str	r2, [r3, #0]
	*USART_CR1 |= 1<<2; 	//Enable receiver
 80002d6:	687b      	ldr	r3, [r7, #4]
 80002d8:	681b      	ldr	r3, [r3, #0]
 80002da:	f043 0204 	orr.w	r2, r3, #4
 80002de:	687b      	ldr	r3, [r7, #4]
 80002e0:	601a      	str	r2, [r3, #0]
	*USART_CR1 |= 1<<13;	//Enable UART
 80002e2:	687b      	ldr	r3, [r7, #4]
 80002e4:	681b      	ldr	r3, [r3, #0]
 80002e6:	f443 5200 	orr.w	r2, r3, #8192	; 0x2000
 80002ea:	687b      	ldr	r3, [r7, #4]
 80002ec:	601a      	str	r2, [r3, #0]
}
 80002ee:	bf00      	nop
 80002f0:	3714      	adds	r7, #20
 80002f2:	46bd      	mov	sp, r7
 80002f4:	bc80      	pop	{r7}
 80002f6:	4770      	bx	lr
 80002f8:	40010804 	.word	0x40010804
 80002fc:	40013808 	.word	0x40013808
 8000300:	4001380c 	.word	0x4001380c

08000304 <Custom_Uart_Read_Char>:
	while(((*USART_SR>>6)&1) !=1);			//wait TC (Transmission complete)
	*USART_SR &= ~(uint32_t)(1<<6);
}

uint8_t Custom_Uart_Read_Char()
{
 8000304:	b480      	push	{r7}
 8000306:	b085      	sub	sp, #20
 8000308:	af00      	add	r7, sp, #0
	uint32_t *USART_DR = (uint32_t*)(0x40013804);
 800030a:	4b0b      	ldr	r3, [pc, #44]	; (8000338 <Custom_Uart_Read_Char+0x34>)
 800030c:	60fb      	str	r3, [r7, #12]
	uint32_t *USART_SR = (uint32_t*)(0x40013800);
 800030e:	4b0b      	ldr	r3, [pc, #44]	; (800033c <Custom_Uart_Read_Char+0x38>)
 8000310:	60bb      	str	r3, [r7, #8]
	uint8_t result = 0;
 8000312:	2300      	movs	r3, #0
 8000314:	71fb      	strb	r3, [r7, #7]


	while(((*USART_SR>>5)&1) !=1);			//wait RXNE flag is set (Read data register not empty)
 8000316:	bf00      	nop
 8000318:	68bb      	ldr	r3, [r7, #8]
 800031a:	681b      	ldr	r3, [r3, #0]
 800031c:	095b      	lsrs	r3, r3, #5
 800031e:	f003 0301 	and.w	r3, r3, #1
 8000322:	2b00      	cmp	r3, #0
 8000324:	d0f8      	beq.n	8000318 <Custom_Uart_Read_Char+0x14>
	result = (uint8_t)(*USART_DR);			//Read data to USART_DR
 8000326:	68fb      	ldr	r3, [r7, #12]
 8000328:	681b      	ldr	r3, [r3, #0]
 800032a:	71fb      	strb	r3, [r7, #7]
	return result;
 800032c:	79fb      	ldrb	r3, [r7, #7]
}
 800032e:	4618      	mov	r0, r3
 8000330:	3714      	adds	r7, #20
 8000332:	46bd      	mov	sp, r7
 8000334:	bc80      	pop	{r7}
 8000336:	4770      	bx	lr
 8000338:	40013804 	.word	0x40013804
 800033c:	40013800 	.word	0x40013800

08000340 <Custom_Uart_Write_String>:

void Custom_Uart_Write_String(uint8_t* str)
{
 8000340:	b480      	push	{r7}
 8000342:	b087      	sub	sp, #28
 8000344:	af00      	add	r7, sp, #0
 8000346:	6078      	str	r0, [r7, #4]
	uint32_t *USART_DR = (uint32_t*)(0x40013804);
 8000348:	4b18      	ldr	r3, [pc, #96]	; (80003ac <Custom_Uart_Write_String+0x6c>)
 800034a:	613b      	str	r3, [r7, #16]
	uint32_t *USART_SR = (uint32_t*)(0x40013800);
 800034c:	4b18      	ldr	r3, [pc, #96]	; (80003b0 <Custom_Uart_Write_String+0x70>)
 800034e:	60fb      	str	r3, [r7, #12]


	uint8_t index = 0;
 8000350:	2300      	movs	r3, #0
 8000352:	75fb      	strb	r3, [r7, #23]
	while(str[index] != 0)
 8000354:	e01f      	b.n	8000396 <Custom_Uart_Write_String+0x56>
	{
		while(((*USART_SR>>7)&1) !=1);			//wait TXE (Transmit data register empty)
 8000356:	bf00      	nop
 8000358:	68fb      	ldr	r3, [r7, #12]
 800035a:	681b      	ldr	r3, [r3, #0]
 800035c:	09db      	lsrs	r3, r3, #7
 800035e:	f003 0301 	and.w	r3, r3, #1
 8000362:	2b00      	cmp	r3, #0
 8000364:	d0f8      	beq.n	8000358 <Custom_Uart_Write_String+0x18>
		*USART_DR = str[index] & 0x000000ff;	//write data to USART_DR
 8000366:	7dfb      	ldrb	r3, [r7, #23]
 8000368:	687a      	ldr	r2, [r7, #4]
 800036a:	4413      	add	r3, r2
 800036c:	781b      	ldrb	r3, [r3, #0]
 800036e:	461a      	mov	r2, r3
 8000370:	693b      	ldr	r3, [r7, #16]
 8000372:	601a      	str	r2, [r3, #0]
		while(((*USART_SR>>6)&1) !=1);			//wait TC (Transmission complete)
 8000374:	bf00      	nop
 8000376:	68fb      	ldr	r3, [r7, #12]
 8000378:	681b      	ldr	r3, [r3, #0]
 800037a:	099b      	lsrs	r3, r3, #6
 800037c:	f003 0301 	and.w	r3, r3, #1
 8000380:	2b00      	cmp	r3, #0
 8000382:	d0f8      	beq.n	8000376 <Custom_Uart_Write_String+0x36>
		*USART_SR &= ~(uint32_t)(1<<6);
 8000384:	68fb      	ldr	r3, [r7, #12]
 8000386:	681b      	ldr	r3, [r3, #0]
 8000388:	f023 0240 	bic.w	r2, r3, #64	; 0x40
 800038c:	68fb      	ldr	r3, [r7, #12]
 800038e:	601a      	str	r2, [r3, #0]
		index++;
 8000390:	7dfb      	ldrb	r3, [r7, #23]
 8000392:	3301      	adds	r3, #1
 8000394:	75fb      	strb	r3, [r7, #23]
	while(str[index] != 0)
 8000396:	7dfb      	ldrb	r3, [r7, #23]
 8000398:	687a      	ldr	r2, [r7, #4]
 800039a:	4413      	add	r3, r2
 800039c:	781b      	ldrb	r3, [r3, #0]
 800039e:	2b00      	cmp	r3, #0
 80003a0:	d1d9      	bne.n	8000356 <Custom_Uart_Write_String+0x16>
	}
}
 80003a2:	bf00      	nop
 80003a4:	371c      	adds	r7, #28
 80003a6:	46bd      	mov	sp, r7
 80003a8:	bc80      	pop	{r7}
 80003aa:	4770      	bx	lr
 80003ac:	40013804 	.word	0x40013804
 80003b0:	40013800 	.word	0x40013800

080003b4 <Custom_Uart_DMA_Enable>:

void Custom_Uart_DMA_Enable()
{
 80003b4:	b480      	push	{r7}
 80003b6:	b087      	sub	sp, #28
 80003b8:	af00      	add	r7, sp, #0
	//Use DMA channel 5 to receive data

	uint32_t *DMA_CCR5 = (uint32_t*)(0x40020058);
 80003ba:	4b10      	ldr	r3, [pc, #64]	; (80003fc <Custom_Uart_DMA_Enable+0x48>)
 80003bc:	617b      	str	r3, [r7, #20]
	uint32_t *DMA_CNDTR5 = (uint32_t*)(0x4002005C);
 80003be:	4b10      	ldr	r3, [pc, #64]	; (8000400 <Custom_Uart_DMA_Enable+0x4c>)
 80003c0:	613b      	str	r3, [r7, #16]
	uint32_t *DMA_CPAR5 = (uint32_t*)(0x40020060);
 80003c2:	4b10      	ldr	r3, [pc, #64]	; (8000404 <Custom_Uart_DMA_Enable+0x50>)
 80003c4:	60fb      	str	r3, [r7, #12]
	uint32_t *DMA_CMAR5 = (uint32_t*)(0x40020064);
 80003c6:	4b10      	ldr	r3, [pc, #64]	; (8000408 <Custom_Uart_DMA_Enable+0x54>)
 80003c8:	60bb      	str	r3, [r7, #8]
	uint32_t *USART_CR3 = (uint32_t*)(0x40013814);
 80003ca:	4b10      	ldr	r3, [pc, #64]	; (800040c <Custom_Uart_DMA_Enable+0x58>)
 80003cc:	607b      	str	r3, [r7, #4]
	*USART_CR3 |= 1<<6; 						//DMA enable receiver
 80003ce:	687b      	ldr	r3, [r7, #4]
 80003d0:	681b      	ldr	r3, [r3, #0]
 80003d2:	f043 0240 	orr.w	r2, r3, #64	; 0x40
 80003d6:	687b      	ldr	r3, [r7, #4]
 80003d8:	601a      	str	r2, [r3, #0]

	// ***note: Set all before enable DMA channel 5
	*DMA_CNDTR5 = sizeof(data_recv);			//number of data register
 80003da:	693b      	ldr	r3, [r7, #16]
 80003dc:	2280      	movs	r2, #128	; 0x80
 80003de:	601a      	str	r2, [r3, #0]
	*DMA_CMAR5 = (uint32_t)data_recv;			//memory address register
 80003e0:	4a0b      	ldr	r2, [pc, #44]	; (8000410 <Custom_Uart_DMA_Enable+0x5c>)
 80003e2:	68bb      	ldr	r3, [r7, #8]
 80003e4:	601a      	str	r2, [r3, #0]
	*DMA_CPAR5 = (0x40013804); 					//peripheral address register
 80003e6:	68fb      	ldr	r3, [r7, #12]
 80003e8:	4a0a      	ldr	r2, [pc, #40]	; (8000414 <Custom_Uart_DMA_Enable+0x60>)
 80003ea:	601a      	str	r2, [r3, #0]
	/*
	 * Enable channel 5
	 * Enable Circular mode
	 * Enable Memory increment mode
	 */
	*DMA_CCR5 = (1<<0)|(1<<5)|(1<<7);
 80003ec:	697b      	ldr	r3, [r7, #20]
 80003ee:	22a1      	movs	r2, #161	; 0xa1
 80003f0:	601a      	str	r2, [r3, #0]
}
 80003f2:	bf00      	nop
 80003f4:	371c      	adds	r7, #28
 80003f6:	46bd      	mov	sp, r7
 80003f8:	bc80      	pop	{r7}
 80003fa:	4770      	bx	lr
 80003fc:	40020058 	.word	0x40020058
 8000400:	4002005c 	.word	0x4002005c
 8000404:	40020060 	.word	0x40020060
 8000408:	40020064 	.word	0x40020064
 800040c:	40013814 	.word	0x40013814
 8000410:	20000020 	.word	0x20000020
 8000414:	40013804 	.word	0x40013804

08000418 <Custom_Uart_Interrupt_Enable>:

void Custom_Uart_Interrupt_Enable()
{
 8000418:	b480      	push	{r7}
 800041a:	b083      	sub	sp, #12
 800041c:	af00      	add	r7, sp, #0
	uint32_t *USART_CR1 = (uint32_t*)(0x4001380C);
 800041e:	4b0a      	ldr	r3, [pc, #40]	; (8000448 <Custom_Uart_Interrupt_Enable+0x30>)
 8000420:	607b      	str	r3, [r7, #4]
	uint32_t *NVIC_ISER1 = (uint32_t*)(0xE000E104);
 8000422:	4b0a      	ldr	r3, [pc, #40]	; (800044c <Custom_Uart_Interrupt_Enable+0x34>)
 8000424:	603b      	str	r3, [r7, #0]

	*USART_CR1 |= 1<<5;			//RXNE interrupt enable
 8000426:	687b      	ldr	r3, [r7, #4]
 8000428:	681b      	ldr	r3, [r3, #0]
 800042a:	f043 0220 	orr.w	r2, r3, #32
 800042e:	687b      	ldr	r3, [r7, #4]
 8000430:	601a      	str	r2, [r3, #0]
	*NVIC_ISER1 |= 1<<(37-32);	//Enable interrupt at position 37 (UART1 global)
 8000432:	683b      	ldr	r3, [r7, #0]
 8000434:	681b      	ldr	r3, [r3, #0]
 8000436:	f043 0220 	orr.w	r2, r3, #32
 800043a:	683b      	ldr	r3, [r7, #0]
 800043c:	601a      	str	r2, [r3, #0]

}
 800043e:	bf00      	nop
 8000440:	370c      	adds	r7, #12
 8000442:	46bd      	mov	sp, r7
 8000444:	bc80      	pop	{r7}
 8000446:	4770      	bx	lr
 8000448:	4001380c 	.word	0x4001380c
 800044c:	e000e104 	.word	0xe000e104

08000450 <USART1_IRQHandler>:

void USART1_IRQHandler()
{
 8000450:	b580      	push	{r7, lr}
 8000452:	af00      	add	r7, sp, #0
	test = Custom_Uart_Read_Char();
 8000454:	f7ff ff56 	bl	8000304 <Custom_Uart_Read_Char>
 8000458:	4603      	mov	r3, r0
 800045a:	461a      	mov	r2, r3
 800045c:	4b01      	ldr	r3, [pc, #4]	; (8000464 <USART1_IRQHandler+0x14>)
 800045e:	701a      	strb	r2, [r3, #0]
}
 8000460:	bf00      	nop
 8000462:	bd80      	pop	{r7, pc}
 8000464:	200000a0 	.word	0x200000a0

08000468 <NMI_Handler>:
/******************************************************************************/
/**
  * @brief This function handles Non maskable interrupt.
  */
void NMI_Handler(void)
{
 8000468:	b480      	push	{r7}
 800046a:	af00      	add	r7, sp, #0
  /* USER CODE BEGIN NonMaskableInt_IRQn 0 */

  /* USER CODE END NonMaskableInt_IRQn 0 */
  /* USER CODE BEGIN NonMaskableInt_IRQn 1 */
  while (1)
 800046c:	e7fe      	b.n	800046c <NMI_Handler+0x4>

0800046e <HardFault_Handler>:

/**
  * @brief This function handles Hard fault interrupt.
  */
void HardFault_Handler(void)
{
 800046e:	b480      	push	{r7}
 8000470:	af00      	add	r7, sp, #0
  /* USER CODE BEGIN HardFault_IRQn 0 */

  /* USER CODE END HardFault_IRQn 0 */
  while (1)
 8000472:	e7fe      	b.n	8000472 <HardFault_Handler+0x4>

08000474 <MemManage_Handler>:

/**
  * @brief This function handles Memory management fault.
  */
void MemManage_Handler(void)
{
 8000474:	b480      	push	{r7}
 8000476:	af00      	add	r7, sp, #0
  /* USER CODE BEGIN MemoryManagement_IRQn 0 */

  /* USER CODE END MemoryManagement_IRQn 0 */
  while (1)
 8000478:	e7fe      	b.n	8000478 <MemManage_Handler+0x4>

0800047a <BusFault_Handler>:

/**
  * @brief This function handles Prefetch fault, memory access fault.
  */
void BusFault_Handler(void)
{
 800047a:	b480      	push	{r7}
 800047c:	af00      	add	r7, sp, #0
  /* USER CODE BEGIN BusFault_IRQn 0 */

  /* USER CODE END BusFault_IRQn 0 */
  while (1)
 800047e:	e7fe      	b.n	800047e <BusFault_Handler+0x4>

08000480 <UsageFault_Handler>:

/**
  * @brief This function handles Undefined instruction or illegal state.
  */
void UsageFault_Handler(void)
{
 8000480:	b480      	push	{r7}
 8000482:	af00      	add	r7, sp, #0
  /* USER CODE BEGIN UsageFault_IRQn 0 */

  /* USER CODE END UsageFault_IRQn 0 */
  while (1)
 8000484:	e7fe      	b.n	8000484 <UsageFault_Handler+0x4>

08000486 <SVC_Handler>:

/**
  * @brief This function handles System service call via SWI instruction.
  */
void SVC_Handler(void)
{
 8000486:	b480      	push	{r7}
 8000488:	af00      	add	r7, sp, #0

  /* USER CODE END SVCall_IRQn 0 */
  /* USER CODE BEGIN SVCall_IRQn 1 */

  /* USER CODE END SVCall_IRQn 1 */
}
 800048a:	bf00      	nop
 800048c:	46bd      	mov	sp, r7
 800048e:	bc80      	pop	{r7}
 8000490:	4770      	bx	lr

08000492 <DebugMon_Handler>:

/**
  * @brief This function handles Debug monitor.
  */
void DebugMon_Handler(void)
{
 8000492:	b480      	push	{r7}
 8000494:	af00      	add	r7, sp, #0

  /* USER CODE END DebugMonitor_IRQn 0 */
  /* USER CODE BEGIN DebugMonitor_IRQn 1 */

  /* USER CODE END DebugMonitor_IRQn 1 */
}
 8000496:	bf00      	nop
 8000498:	46bd      	mov	sp, r7
 800049a:	bc80      	pop	{r7}
 800049c:	4770      	bx	lr

0800049e <PendSV_Handler>:

/**
  * @brief This function handles Pendable request for system service.
  */
void PendSV_Handler(void)
{
 800049e:	b480      	push	{r7}
 80004a0:	af00      	add	r7, sp, #0

  /* USER CODE END PendSV_IRQn 0 */
  /* USER CODE BEGIN PendSV_IRQn 1 */

  /* USER CODE END PendSV_IRQn 1 */
}
 80004a2:	bf00      	nop
 80004a4:	46bd      	mov	sp, r7
 80004a6:	bc80      	pop	{r7}
 80004a8:	4770      	bx	lr

080004aa <SysTick_Handler>:

/**
  * @brief This function handles System tick timer.
  */
void SysTick_Handler(void)
{
 80004aa:	b580      	push	{r7, lr}
 80004ac:	af00      	add	r7, sp, #0
  /* USER CODE BEGIN SysTick_IRQn 0 */

  /* USER CODE END SysTick_IRQn 0 */
  HAL_IncTick();
 80004ae:	f000 f82f 	bl	8000510 <HAL_IncTick>
  /* USER CODE BEGIN SysTick_IRQn 1 */

  /* USER CODE END SysTick_IRQn 1 */
}
 80004b2:	bf00      	nop
 80004b4:	bd80      	pop	{r7, pc}

080004b6 <SystemInit>:
  * @note   This function should be used only after reset.
  * @param  None
  * @retval None
  */
void SystemInit (void)
{
 80004b6:	b480      	push	{r7}
 80004b8:	af00      	add	r7, sp, #0

  /* Configure the Vector Table location -------------------------------------*/
#if defined(USER_VECT_TAB_ADDRESS)
  SCB->VTOR = VECT_TAB_BASE_ADDRESS | VECT_TAB_OFFSET; /* Vector Table Relocation in Internal SRAM. */
#endif /* USER_VECT_TAB_ADDRESS */
}
 80004ba:	bf00      	nop
 80004bc:	46bd      	mov	sp, r7
 80004be:	bc80      	pop	{r7}
 80004c0:	4770      	bx	lr
	...

080004c4 <Reset_Handler>:
  .weak Reset_Handler
  .type Reset_Handler, %function
Reset_Handler:

/* Copy the data segment initializers from flash to SRAM */
  movs r1, #0
 80004c4:	2100      	movs	r1, #0
  b LoopCopyDataInit
 80004c6:	e003      	b.n	80004d0 <LoopCopyDataInit>

080004c8 <CopyDataInit>:

CopyDataInit:
  ldr r3, =_sidata
 80004c8:	4b0b      	ldr	r3, [pc, #44]	; (80004f8 <LoopFillZerobss+0x14>)
  ldr r3, [r3, r1]
 80004ca:	585b      	ldr	r3, [r3, r1]
  str r3, [r0, r1]
 80004cc:	5043      	str	r3, [r0, r1]
  adds r1, r1, #4
 80004ce:	3104      	adds	r1, #4

080004d0 <LoopCopyDataInit>:

LoopCopyDataInit:
  ldr r0, =_sdata
 80004d0:	480a      	ldr	r0, [pc, #40]	; (80004fc <LoopFillZerobss+0x18>)
  ldr r3, =_edata
 80004d2:	4b0b      	ldr	r3, [pc, #44]	; (8000500 <LoopFillZerobss+0x1c>)
  adds r2, r0, r1
 80004d4:	1842      	adds	r2, r0, r1
  cmp r2, r3
 80004d6:	429a      	cmp	r2, r3
  bcc CopyDataInit
 80004d8:	d3f6      	bcc.n	80004c8 <CopyDataInit>
  ldr r2, =_sbss
 80004da:	4a0a      	ldr	r2, [pc, #40]	; (8000504 <LoopFillZerobss+0x20>)
  b LoopFillZerobss
 80004dc:	e002      	b.n	80004e4 <LoopFillZerobss>

080004de <FillZerobss>:
/* Zero fill the bss segment. */
FillZerobss:
  movs r3, #0
 80004de:	2300      	movs	r3, #0
  str r3, [r2], #4
 80004e0:	f842 3b04 	str.w	r3, [r2], #4

080004e4 <LoopFillZerobss>:

LoopFillZerobss:
  ldr r3, = _ebss
 80004e4:	4b08      	ldr	r3, [pc, #32]	; (8000508 <LoopFillZerobss+0x24>)
  cmp r2, r3
 80004e6:	429a      	cmp	r2, r3
  bcc FillZerobss
 80004e8:	d3f9      	bcc.n	80004de <FillZerobss>

/* Call the clock system intitialization function.*/
    bl  SystemInit
 80004ea:	f7ff ffe4 	bl	80004b6 <SystemInit>
/* Call static constructors */
    bl __libc_init_array
 80004ee:	f000 f821 	bl	8000534 <__libc_init_array>
/* Call the application's entry point.*/
  bl main
 80004f2:	f7ff fe2b 	bl	800014c <main>
  bx lr
 80004f6:	4770      	bx	lr
  ldr r3, =_sidata
 80004f8:	080005ac 	.word	0x080005ac
  ldr r0, =_sdata
 80004fc:	20000000 	.word	0x20000000
  ldr r3, =_edata
 8000500:	20000004 	.word	0x20000004
  ldr r2, =_sbss
 8000504:	20000004 	.word	0x20000004
  ldr r3, = _ebss
 8000508:	200000a8 	.word	0x200000a8

0800050c <ADC1_2_IRQHandler>:
 * @retval : None
*/
    .section .text.Default_Handler,"ax",%progbits
Default_Handler:
Infinite_Loop:
  b Infinite_Loop
 800050c:	e7fe      	b.n	800050c <ADC1_2_IRQHandler>
	...

08000510 <HAL_IncTick>:
  * @note This function is declared as __weak to be overwritten in case of other
  *      implementations in user file.
  * @retval None
  */
__weak void HAL_IncTick(void)
{
 8000510:	b480      	push	{r7}
 8000512:	af00      	add	r7, sp, #0
  uwTick += uwTickFreq;
 8000514:	4b05      	ldr	r3, [pc, #20]	; (800052c <HAL_IncTick+0x1c>)
 8000516:	781b      	ldrb	r3, [r3, #0]
 8000518:	461a      	mov	r2, r3
 800051a:	4b05      	ldr	r3, [pc, #20]	; (8000530 <HAL_IncTick+0x20>)
 800051c:	681b      	ldr	r3, [r3, #0]
 800051e:	4413      	add	r3, r2
 8000520:	4a03      	ldr	r2, [pc, #12]	; (8000530 <HAL_IncTick+0x20>)
 8000522:	6013      	str	r3, [r2, #0]
}
 8000524:	bf00      	nop
 8000526:	46bd      	mov	sp, r7
 8000528:	bc80      	pop	{r7}
 800052a:	4770      	bx	lr
 800052c:	20000000 	.word	0x20000000
 8000530:	200000a4 	.word	0x200000a4

08000534 <__libc_init_array>:
 8000534:	b570      	push	{r4, r5, r6, lr}
 8000536:	2500      	movs	r5, #0
 8000538:	4e0c      	ldr	r6, [pc, #48]	; (800056c <__libc_init_array+0x38>)
 800053a:	4c0d      	ldr	r4, [pc, #52]	; (8000570 <__libc_init_array+0x3c>)
 800053c:	1ba4      	subs	r4, r4, r6
 800053e:	10a4      	asrs	r4, r4, #2
 8000540:	42a5      	cmp	r5, r4
 8000542:	d109      	bne.n	8000558 <__libc_init_array+0x24>
 8000544:	f000 f81a 	bl	800057c <_init>
 8000548:	2500      	movs	r5, #0
 800054a:	4e0a      	ldr	r6, [pc, #40]	; (8000574 <__libc_init_array+0x40>)
 800054c:	4c0a      	ldr	r4, [pc, #40]	; (8000578 <__libc_init_array+0x44>)
 800054e:	1ba4      	subs	r4, r4, r6
 8000550:	10a4      	asrs	r4, r4, #2
 8000552:	42a5      	cmp	r5, r4
 8000554:	d105      	bne.n	8000562 <__libc_init_array+0x2e>
 8000556:	bd70      	pop	{r4, r5, r6, pc}
 8000558:	f856 3025 	ldr.w	r3, [r6, r5, lsl #2]
 800055c:	4798      	blx	r3
 800055e:	3501      	adds	r5, #1
 8000560:	e7ee      	b.n	8000540 <__libc_init_array+0xc>
 8000562:	f856 3025 	ldr.w	r3, [r6, r5, lsl #2]
 8000566:	4798      	blx	r3
 8000568:	3501      	adds	r5, #1
 800056a:	e7f2      	b.n	8000552 <__libc_init_array+0x1e>
 800056c:	080005a4 	.word	0x080005a4
 8000570:	080005a4 	.word	0x080005a4
 8000574:	080005a4 	.word	0x080005a4
 8000578:	080005a8 	.word	0x080005a8

0800057c <_init>:
 800057c:	b5f8      	push	{r3, r4, r5, r6, r7, lr}
 800057e:	bf00      	nop
 8000580:	bcf8      	pop	{r3, r4, r5, r6, r7}
 8000582:	bc08      	pop	{r3}
 8000584:	469e      	mov	lr, r3
 8000586:	4770      	bx	lr

08000588 <_fini>:
 8000588:	b5f8      	push	{r3, r4, r5, r6, r7, lr}
 800058a:	bf00      	nop
 800058c:	bcf8      	pop	{r3, r4, r5, r6, r7}
 800058e:	bc08      	pop	{r3}
 8000590:	469e      	mov	lr, r3
 8000592:	4770      	bx	lr
